target datalayout = "e-m:e-p270:32:32-p271:32:32-p272:64:64-i64:64-i128:128-f80:128-n8:16:32:64-S128"
target triple = "x86_64-pc-linux-gnu"

; Function Attrs: nounwind uwtable
define internal ptr @normalize_path(ptr noundef %0, ptr noundef %1) #0 {
  %3 = alloca ptr, align 8
  %4 = alloca ptr, align 8
  %5 = alloca ptr, align 8
  %6 = alloca i64, align 8
  %7 = alloca ptr, align 8
  %8 = alloca i32, align 4
  %9 = alloca ptr, align 8
  store ptr %0, ptr %4, align 8, !tbaa !3
  store ptr %1, ptr %5, align 8, !tbaa !3
  call void @llvm.lifetime.start.p0(i64 8, ptr %6) #10
  store i64 -1, ptr %6, align 8, !tbaa !27
  call void @llvm.lifetime.start.p0(i64 8, ptr %7) #10
  %10 = load ptr, ptr %5, align 8, !tbaa !3
  %11 = call ptr @PyUnicode_AsWideCharString(ptr noundef %10, ptr noundef %6)
  store ptr %11, ptr %7, align 8, !tbaa !44
  %12 = load ptr, ptr %7, align 8, !tbaa !44
  %13 = icmp eq ptr %12, null
  br i1 %13, label %14, label %15

14:                                               ; preds = %2
  store ptr null, ptr %3, align 8
  store i32 1, ptr %8, align 4
  br label %22

15:                                               ; preds = %2
  call void @llvm.lifetime.start.p0(i64 8, ptr %9) #10
  %16 = load ptr, ptr %7, align 8, !tbaa !44
  %17 = load i64, ptr %6, align 8, !tbaa !27
  %18 = call ptr @_Py_normpath(ptr noundef %16, i64 noundef %17)
  %19 = call ptr @PyUnicode_FromWideChar(ptr noundef %18, i64 noundef -1)
  store ptr %19, ptr %9, align 8, !tbaa !3
  %20 = load ptr, ptr %7, align 8, !tbaa !44
  call void @PyMem_Free(ptr noundef %20)
  %21 = load ptr, ptr %9, align 8, !tbaa !3
  store ptr %21, ptr %3, align 8
  store i32 1, ptr %8, align 4
  call void @llvm.lifetime.end.p0(i64 8, ptr %9) #10
  br label %22

22:                                               ; preds = %15, %14
  call void @llvm.lifetime.end.p0(i64 8, ptr %7) #10
  call void @llvm.lifetime.end.p0(i64 8, ptr %6) #10
  %23 = load ptr, ptr %3, align 8
  ret ptr %23
}