; Function Attrs: nounwind uwtable
define internal ptr @normalize_path(ptr readnone captures(none) %0, ptr noundef %1) #0 {
  %3 = alloca i64, align 8
  call void @llvm.lifetime.start.p0(i64 8, ptr nonnull %3) #11
  store i64 -1, ptr %3, align 8, !tbaa !26
  %4 = call ptr @PyUnicode_AsWideCharString(ptr noundef %1, ptr noundef nonnull %3) #11
  %5 = icmp eq ptr %4, null
  br i1 %5, label %10, label %6

6:                                                ; preds = %2
  %7 = load i64, ptr %3, align 8, !tbaa !26
  %8 = call ptr @_Py_normpath(ptr noundef nonnull %4, i64 noundef %7) #11
  %9 = call ptr @PyUnicode_FromWideChar(ptr noundef %8, i64 noundef -1) #11
  call void @PyMem_Free(ptr noundef nonnull %4) #11
  br label %10

10:                                               ; preds = %2, %6
  %.0 = phi ptr [ %9, %6 ], [ null, %2 ]
  call void @llvm.lifetime.end.p0(i64 8, ptr nonnull %3) #11
  ret ptr %.0
}